target datalayout = "e-m:e-p270:32:32-p271:32:32-p272:64:64-i64:64-i128:128-f80:128-n8:16:32:64-S128"
target triple = "x86_64-pc-linux-gnu"

%struct.PyVarObject = type { %struct._object, i64 }
%struct._object = type { %union.anon, ptr }
%union.anon = type { i64 }
%struct._PyManagedBufferObject = type { %struct._object, i32, i64, %struct.Py_buffer }
%struct.Py_buffer = type { ptr, ptr, i64, i64, i32, i32, ptr, ptr, ptr, ptr, ptr }
%struct.PyMemoryViewObject = type { %struct.PyVarObject, ptr, i64, i32, i64, %struct.Py_buffer, ptr, [1 x i64] }

@PyExc_ValueError = external global ptr, align 8
@.str.8 = private unnamed_addr constant [50 x i8] c"operation forbidden on released memoryview object\00", align 1

; Function Attrs: nounwind uwtable
define internal ptr @memory_itemsize_get(ptr noundef %0, ptr noundef %1) #0 {
  %3 = alloca ptr, align 8
  %4 = alloca ptr, align 8
  %5 = alloca ptr, align 8
  %6 = alloca ptr, align 8
  %7 = alloca i32, align 4
  store ptr %0, ptr %4, align 8, !tbaa !4
  store ptr %1, ptr %5, align 8, !tbaa !9
  call void @llvm.lifetime.start.p0(i64 8, ptr %6) #9
  %8 = load ptr, ptr %4, align 8, !tbaa !4
  store ptr %8, ptr %6, align 8, !tbaa !9
  %9 = load ptr, ptr %6, align 8, !tbaa !9
  %10 = getelementptr inbounds nuw %struct.PyMemoryViewObject, ptr %9, i32 0, i32 3
  %11 = load i32, ptr %10, align 8, !tbaa !33
  %12 = and i32 %11, 1
  %13 = icmp ne i32 %12, 0
  br i1 %13, label %22, label %14

14:                                               ; preds = %2
  %15 = load ptr, ptr %6, align 8, !tbaa !9
  %16 = getelementptr inbounds nuw %struct.PyMemoryViewObject, ptr %15, i32 0, i32 1
  %17 = load ptr, ptr %16, align 8, !tbaa !26
  %18 = getelementptr inbounds nuw %struct._PyManagedBufferObject, ptr %17, i32 0, i32 1
  %19 = load i32, ptr %18, align 8, !tbaa !10
  %20 = and i32 %19, 1
  %21 = icmp ne i32 %20, 0
  br i1 %21, label %22, label %24

22:                                               ; preds = %14, %2
  %23 = load ptr, ptr @PyExc_ValueError, align 8, !tbaa !4
  call void @PyErr_SetString(ptr noundef %23, ptr noundef @.str.8)
  store ptr null, ptr %3, align 8
  store i32 1, ptr %7, align 4
  br label %30

24:                                               ; preds = %14
  %25 = load ptr, ptr %6, align 8, !tbaa !9
  %26 = getelementptr inbounds nuw %struct.PyMemoryViewObject, ptr %25, i32 0, i32 5
  %27 = getelementptr inbounds nuw %struct.Py_buffer, ptr %26, i32 0, i32 3
  %28 = load i64, ptr %27, align 8, !tbaa !202
  %29 = call ptr @PyLong_FromSsize_t(i64 noundef %28)
  store ptr %29, ptr %3, align 8
  store i32 1, ptr %7, align 4
  br label %30

30:                                               ; preds = %24, %22
  call void @llvm.lifetime.end.p0(i64 8, ptr %6) #9
  %31 = load ptr, ptr %3, align 8
  ret ptr %31
}